; Function Attrs: nounwind uwtable
define hidden ptr @ft_hash_str_lookup(ptr noundef %0, ptr noundef readonly captures(none) %1) local_unnamed_addr #0 {
  %3 = alloca %union.FT_Hashkey_, align 8
  call void @llvm.lifetime.start.p0(i64 8, ptr nonnull %3)
  store ptr %0, ptr %3, align 8
  %4 = getelementptr inbounds nuw i8, ptr %1, i64 32
  %5 = load ptr, ptr %4, align 8, !tbaa !217
  %6 = getelementptr inbounds nuw i8, ptr %1, i64 16
  %7 = load ptr, ptr %6, align 8, !tbaa !215
  %8 = call i64 %7(ptr noundef nonnull %3) #34
  %9 = getelementptr inbounds nuw i8, ptr %1, i64 4
  %10 = load i32, ptr %9, align 4, !tbaa !210
  %11 = zext i32 %10 to i64
  %12 = urem i64 %8, %11
  %13 = getelementptr inbounds nuw ptr, ptr %5, i64 %12
  %14 = getelementptr inbounds nuw i8, ptr %1, i64 24
  %15 = load ptr, ptr %13, align 8, !tbaa !218
  %.not17.i.i = icmp eq ptr %15, null
  br i1 %.not17.i.i, label %hash_lookup.exit, label %.lr.ph.i.i

.lr.ph.i.i:                                       ; preds = %2, %27
  %16 = phi ptr [ %28, %27 ], [ %15, %2 ]
  %.018.i.i = phi ptr [ %.1.i.i, %27 ], [ %13, %2 ]
  %17 = load ptr, ptr %14, align 8, !tbaa !216
  %18 = call zeroext i8 %17(ptr noundef nonnull %16, ptr noundef nonnull %3) #34
  %.not16.i.i = icmp eq i8 %18, 0
  br i1 %.not16.i.i, label %19, label %hash_lookup.exit

19:                                               ; preds = %.lr.ph.i.i
  %20 = getelementptr inbounds i8, ptr %.018.i.i, i64 -8
  %21 = icmp ult ptr %20, %5
  br i1 %21, label %22, label %27

22:                                               ; preds = %19
  %23 = load i32, ptr %9, align 4, !tbaa !210
  %24 = add i32 %23, -1
  %25 = zext i32 %24 to i64
  %26 = getelementptr inbounds nuw ptr, ptr %5, i64 %25
  br label %27

27:                                               ; preds = %22, %19
  %.1.i.i = phi ptr [ %26, %22 ], [ %20, %19 ]
  %28 = load ptr, ptr %.1.i.i, align 8, !tbaa !218
  %.not.i.i = icmp eq ptr %28, null
  br i1 %.not.i.i, label %hash_lookup.exit, label %.lr.ph.i.i, !llvm.loop !221

hash_lookup.exit:                                 ; preds = %.lr.ph.i.i, %27, %2
  %.0.lcssa.i.i = phi ptr [ %13, %2 ], [ %.018.i.i, %.lr.ph.i.i ], [ %.1.i.i, %27 ]
  call void @llvm.lifetime.end.p0(i64 8, ptr nonnull %3)
  %29 = load ptr, ptr %.0.lcssa.i.i, align 8, !tbaa !218
  %.not.i = icmp eq ptr %29, null
  %30 = getelementptr inbounds nuw i8, ptr %29, i64 8
  %spec.select.i = select i1 %.not.i, ptr null, ptr %30
  ret ptr %spec.select.i
}